; Function Attrs: nounwind uwtable
define internal { i64, i64 } @js_os_dup2(ptr noundef %0, i64 %1, i64 %2, i32 %3, ptr nocapture noundef readonly %4) #0 {
  %6 = alloca i32, align 4
  %7 = alloca i32, align 4
  %8 = load i64, ptr %4, align 8
  %9 = getelementptr inbounds i8, ptr %4, i64 8
  %10 = load i64, ptr %9, align 8
  %11 = call i32 @JS_ToInt32(ptr noundef %0, ptr noundef nonnull %6, i64 %8, i64 %10) #29
  %.not = icmp eq i32 %11, 0
  br i1 %.not, label %12, label %27

12:                                               ; preds = %5
  %13 = getelementptr i8, ptr %4, i64 16
  %14 = load i64, ptr %13, align 8
  %15 = getelementptr i8, ptr %4, i64 24
  %16 = load i64, ptr %15, align 8
  %17 = call i32 @JS_ToInt32(ptr noundef %0, ptr noundef nonnull %7, i64 %14, i64 %16) #29
  %.not12 = icmp eq i32 %17, 0
  br i1 %.not12, label %18, label %27

18:                                               ; preds = %12
  %19 = load i32, ptr %6, align 4
  %20 = load i32, ptr %7, align 4
  %21 = call i32 @dup2(i32 noundef %19, i32 noundef %20) #29
  %22 = icmp eq i32 %21, -1
  br i1 %22, label %23, label %js_get_errno.exit

23:                                               ; preds = %18
  %24 = tail call ptr @__errno_location() #28
  %25 = load i32, ptr %24, align 4
  %26 = sub i32 0, %25
  br label %js_get_errno.exit

js_get_errno.exit:                                ; preds = %18, %23
  %.0.i.in = phi i32 [ %26, %23 ], [ %21, %18 ]
  %.0.i = zext i32 %.0.i.in to i64
  br label %27

27:                                               ; preds = %12, %5, %js_get_errno.exit
  %.sroa.05.0 = phi i64 [ %.0.i, %js_get_errno.exit ], [ 0, %5 ], [ 0, %12 ]
  %.sroa.4.sroa.2.0 = phi i64 [ 0, %js_get_errno.exit ], [ 6, %5 ], [ 6, %12 ]
  %.fca.0.insert = insertvalue { i64, i64 } poison, i64 %.sroa.05.0, 0
  %.fca.1.insert = insertvalue { i64, i64 } %.fca.0.insert, i64 %.sroa.4.sroa.2.0, 1
  ret { i64, i64 } %.fca.1.insert
}